target datalayout = "e-m:e-p270:32:32-p271:32:32-p272:64:64-i64:64-i128:128-f80:128-n8:16:32:64-S128"
target triple = "x86_64-pc-linux-gnu"

; Function Attrs: nounwind uwtable
define internal i32 @vvc_loop_ladf_level_8(ptr noundef %0, i64 noundef %1, i64 noundef %2) #0 {
  %4 = alloca ptr, align 8
  %5 = alloca i64, align 8
  %6 = alloca i64, align 8
  %7 = alloca ptr, align 8
  %8 = alloca i64, align 8
  %9 = alloca i64, align 8
  store ptr %0, ptr %4, align 8, !tbaa !144
  store i64 %1, ptr %5, align 8, !tbaa !146
  store i64 %2, ptr %6, align 8, !tbaa !146
  call void @llvm.lifetime.start.p0(i64 8, ptr %7) #8
  %10 = load ptr, ptr %4, align 8, !tbaa !144
  store ptr %10, ptr %7, align 8, !tbaa !144
  call void @llvm.lifetime.start.p0(i64 8, ptr %8) #8
  %11 = load i64, ptr %5, align 8, !tbaa !146
  %12 = udiv i64 %11, 1
  store i64 %12, ptr %8, align 8, !tbaa !146
  call void @llvm.lifetime.start.p0(i64 8, ptr %9) #8
  %13 = load i64, ptr %6, align 8, !tbaa !146
  %14 = udiv i64 %13, 1
  store i64 %14, ptr %9, align 8, !tbaa !146
  %15 = load ptr, ptr %7, align 8, !tbaa !144
  %16 = load i64, ptr %8, align 8, !tbaa !146
  %17 = mul nsw i64 -1, %16
  %18 = getelementptr inbounds i8, ptr %15, i64 %17
  %19 = load i8, ptr %18, align 1, !tbaa !152
  %20 = zext i8 %19 to i32
  %21 = load ptr, ptr %7, align 8, !tbaa !144
  %22 = load i64, ptr %8, align 8, !tbaa !146
  %23 = mul nsw i64 -1, %22
  %24 = load i64, ptr %9, align 8, !tbaa !146
  %25 = mul nsw i64 3, %24
  %26 = add nsw i64 %23, %25
  %27 = getelementptr inbounds i8, ptr %21, i64 %26
  %28 = load i8, ptr %27, align 1, !tbaa !152
  %29 = zext i8 %28 to i32
  %30 = add nsw i32 %20, %29
  %31 = load ptr, ptr %7, align 8, !tbaa !144
  %32 = load i64, ptr %8, align 8, !tbaa !146
  %33 = mul nsw i64 0, %32
  %34 = getelementptr inbounds i8, ptr %31, i64 %33
  %35 = load i8, ptr %34, align 1, !tbaa !152
  %36 = zext i8 %35 to i32
  %37 = add nsw i32 %30, %36
  %38 = load ptr, ptr %7, align 8, !tbaa !144
  %39 = load i64, ptr %8, align 8, !tbaa !146
  %40 = mul nsw i64 0, %39
  %41 = load i64, ptr %9, align 8, !tbaa !146
  %42 = mul nsw i64 3, %41
  %43 = add nsw i64 %40, %42
  %44 = getelementptr inbounds i8, ptr %38, i64 %43
  %45 = load i8, ptr %44, align 1, !tbaa !152
  %46 = zext i8 %45 to i32
  %47 = add nsw i32 %37, %46
  %48 = ashr i32 %47, 2
  call void @llvm.lifetime.end.p0(i64 8, ptr %9) #8
  call void @llvm.lifetime.end.p0(i64 8, ptr %8) #8
  call void @llvm.lifetime.end.p0(i64 8, ptr %7) #8
  ret i32 %48
}

; Function Attrs: nounwind uwtable
define internal i32 @vvc_h_loop_ladf_level_8(ptr noundef %0, i64 noundef %1) #0 {
  %3 = alloca ptr, align 8
  %4 = alloca i64, align 8
  store ptr %0, ptr %3, align 8, !tbaa !144
  store i64 %1, ptr %4, align 8, !tbaa !146
  %5 = load ptr, ptr %3, align 8, !tbaa !144
  %6 = load i64, ptr %4, align 8, !tbaa !146
  %7 = call i32 @vvc_loop_ladf_level_8(ptr noundef %5, i64 noundef %6, i64 noundef 1)
  ret i32 %7
}