; Function Attrs: mustprogress nofree norecurse nosync nounwind willreturn memory(argmem: read) uwtable
define internal range(i32 0, 256) i32 @vvc_h_loop_ladf_level_8(ptr noundef readonly captures(none) %0, i64 noundef %1) #10 {
  %3 = sub nsw i64 0, %1
  %4 = getelementptr inbounds i8, ptr %0, i64 %3
  %5 = load i8, ptr %4, align 1, !tbaa !128
  %6 = zext i8 %5 to i32
  %7 = sub nsw i64 3, %1
  %8 = getelementptr inbounds i8, ptr %0, i64 %7
  %9 = load i8, ptr %8, align 1, !tbaa !128
  %10 = zext i8 %9 to i32
  %11 = add nuw nsw i32 %10, %6
  %12 = load i8, ptr %0, align 1, !tbaa !128
  %13 = zext i8 %12 to i32
  %14 = add nuw nsw i32 %11, %13
  %15 = getelementptr inbounds nuw i8, ptr %0, i64 3
  %16 = load i8, ptr %15, align 1, !tbaa !128
  %17 = zext i8 %16 to i32
  %18 = add nuw nsw i32 %14, %17
  %19 = lshr i32 %18, 2
  ret i32 %19
}